; Function Attrs: mustprogress nounwind uwtable
define void @_ZN6icu_7713ListFormatterD2Ev(ptr noundef nonnull align 8 dereferenceable(24) initializes((0, 8)) %0) unnamed_addr #0 align 2 {
  store ptr getelementptr inbounds nuw inrange(-16, 24) (i8, ptr @_ZTVN6icu_7713ListFormatterE, i64 16), ptr %0, align 8, !tbaa !15
  %2 = getelementptr inbounds nuw i8, ptr %0, i64 8
  %3 = load ptr, ptr %2, align 8, !tbaa !35
  %4 = icmp eq ptr %3, null
  br i1 %4, label %14, label %5

5:                                                ; preds = %1
  %6 = getelementptr inbounds nuw i8, ptr %3, i64 152
  %.val.i = load ptr, ptr %6, align 8, !tbaa !40
  %7 = icmp eq ptr %.val.i, null
  br i1 %7, label %_ZN6icu_7718ListFormatInternalD2Ev.exit, label %8

8:                                                ; preds = %5
  %9 = load ptr, ptr %.val.i, align 8, !tbaa !15
  %10 = getelementptr inbounds nuw i8, ptr %9, i64 8
  %11 = load ptr, ptr %10, align 8
  tail call void %11(ptr noundef nonnull align 8 dereferenceable(152) %.val.i) #19
  br label %_ZN6icu_7718ListFormatInternalD2Ev.exit

_ZN6icu_7718ListFormatInternalD2Ev.exit:          ; preds = %5, %8
  %12 = getelementptr inbounds nuw i8, ptr %3, i64 80
  tail call void @_ZN6icu_7715SimpleFormatterD1Ev(ptr noundef nonnull align 8 dereferenceable(72) %12) #19
  %13 = getelementptr inbounds nuw i8, ptr %3, i64 8
  tail call void @_ZN6icu_7715SimpleFormatterD1Ev(ptr noundef nonnull align 8 dereferenceable(72) %13) #19
  tail call void @_ZN6icu_777UMemorydlEPv(ptr noundef nonnull %3) #19
  br label %14

14:                                               ; preds = %_ZN6icu_7718ListFormatInternalD2Ev.exit, %1
  tail call void @_ZN6icu_777UObjectD2Ev(ptr noundef nonnull align 8 dereferenceable(8) %0) #19
  ret void
}